target datalayout = "e-m:e-p270:32:32-p271:32:32-p272:64:64-i64:64-i128:128-f80:128-n8:16:32:64-S128"
target triple = "x86_64-pc-linux-gnu"

%struct._packet_info = type { ptr, ptr, i32, i32, %struct.nstime_t, %struct.nstime_t, %struct.nstime_t, i8, ptr, ptr, ptr, ptr, %struct._address, %struct._address, %struct._address, %struct._address, %struct._address, %struct._address, i32, ptr, i8, [3 x i8], %struct.anon.1, i32, i32, i32, i32, ptr, i8, ptr, ptr, i16, i16, i32, i32, i16, i32, i32, ptr, ptr, ptr, i8, i8, i16, i16, i16, i32, i16, i16, ptr, ptr, ptr, ptr, ptr, i32, i32 }
%struct.nstime_t = type { i64, i32 }
%struct._address = type { i32, i32, ptr, ptr }
%struct.anon.1 = type { i8, [3 x i8] }
%struct.amqp_delivery = type { i64, i32, i32, ptr }
%struct._proto_node = type { ptr, ptr, ptr, ptr, ptr, ptr, ptr }
%struct.field_info = type { ptr, i32, i32, i32, i32, i32, i32, ptr, ptr, ptr, i32, i32 }

@hf_amqp_message_in = internal global i32 0, align 4
@proto_amqp = internal global i32 0, align 4

; Function Attrs: inlinehint nounwind null_pointer_is_valid sspstrong uwtable
define internal void @proto_item_set_generated(ptr noundef %0) #9 {
  %2 = alloca ptr, align 8
  store ptr %0, ptr %2, align 8
  %3 = load ptr, ptr %2, align 8
  %4 = icmp ne ptr %3, null
  br i1 %4, label %5, label %24

5:                                                ; preds = %1
  br label %6

6:                                                ; preds = %5
  %7 = load ptr, ptr %2, align 8
  %8 = getelementptr inbounds nuw %struct._proto_node, ptr %7, i32 0, i32 5
  %9 = load ptr, ptr %8, align 8
  %10 = icmp ne ptr %9, null
  br i1 %10, label %11, label %22

11:                                               ; preds = %6
  %12 = load ptr, ptr %2, align 8
  %13 = getelementptr inbounds nuw %struct._proto_node, ptr %12, i32 0, i32 5
  %14 = load ptr, ptr %13, align 8
  %15 = getelementptr inbounds nuw %struct.field_info, ptr %14, i32 0, i32 6
  %16 = load i32, ptr %15, align 4
  %17 = or i32 %16, 2
  %18 = load ptr, ptr %2, align 8
  %19 = getelementptr inbounds nuw %struct._proto_node, ptr %18, i32 0, i32 5
  %20 = load ptr, ptr %19, align 8
  %21 = getelementptr inbounds nuw %struct.field_info, ptr %20, i32 0, i32 6
  store i32 %17, ptr %21, align 4
  br label %22

22:                                               ; preds = %11, %6
  br label %23

23:                                               ; preds = %22
  br label %24

24:                                               ; preds = %23, %1
  ret void
}

; Function Attrs: null_pointer_is_valid sspstrong uwtable
define internal void @generate_msg_reference(ptr noundef %0, ptr noundef %1, ptr noundef %2) #0 {
  %4 = alloca ptr, align 8
  %5 = alloca ptr, align 8
  %6 = alloca ptr, align 8
  %7 = alloca ptr, align 8
  %8 = alloca ptr, align 8
  store ptr %0, ptr %4, align 8
  store ptr %1, ptr %5, align 8
  store ptr %2, ptr %6, align 8
  call void @llvm.lifetime.start.p0(i64 8, ptr %7) #11
  call void @llvm.lifetime.start.p0(i64 8, ptr %8) #11
  %9 = load ptr, ptr %5, align 8
  %10 = getelementptr inbounds nuw %struct._packet_info, ptr %9, i32 0, i32 51
  %11 = load ptr, ptr %10, align 8
  %12 = load ptr, ptr %5, align 8
  %13 = load i32, ptr @proto_amqp, align 4
  %14 = load ptr, ptr %4, align 8
  %15 = call i32 @tvb_raw_offset(ptr noundef %14)
  %16 = call ptr @p_get_proto_data(ptr noundef %11, ptr noundef %12, i32 noundef %13, i32 noundef %15)
  store ptr %16, ptr %7, align 8
  br label %17

17:                                               ; preds = %34, %3
  %18 = load ptr, ptr %7, align 8
  %19 = icmp ne ptr %18, null
  br i1 %19, label %20, label %38

20:                                               ; preds = %17
  %21 = load ptr, ptr %7, align 8
  %22 = getelementptr inbounds nuw %struct.amqp_delivery, ptr %21, i32 0, i32 1
  %23 = load i32, ptr %22, align 8
  %24 = icmp ne i32 %23, 0
  br i1 %24, label %25, label %34

25:                                               ; preds = %20
  %26 = load ptr, ptr %6, align 8
  %27 = load i32, ptr @hf_amqp_message_in, align 4
  %28 = load ptr, ptr %4, align 8
  %29 = load ptr, ptr %7, align 8
  %30 = getelementptr inbounds nuw %struct.amqp_delivery, ptr %29, i32 0, i32 1
  %31 = load i32, ptr %30, align 8
  %32 = call ptr @proto_tree_add_uint(ptr noundef %26, i32 noundef %27, ptr noundef %28, i32 noundef 0, i32 noundef 0, i32 noundef %31)
  store ptr %32, ptr %8, align 8
  %33 = load ptr, ptr %8, align 8
  call void @proto_item_set_generated(ptr noundef %33)
  br label %34

34:                                               ; preds = %25, %20
  %35 = load ptr, ptr %7, align 8
  %36 = getelementptr inbounds nuw %struct.amqp_delivery, ptr %35, i32 0, i32 3
  %37 = load ptr, ptr %36, align 8
  store ptr %37, ptr %7, align 8
  br label %17, !llvm.loop !11

38:                                               ; preds = %17
  call void @llvm.lifetime.end.p0(i64 8, ptr %8) #11
  call void @llvm.lifetime.end.p0(i64 8, ptr %7) #11
  ret void
}