; Function Attrs: null_pointer_is_valid sspstrong uwtable
define internal fastcc void @generate_msg_reference(ptr noundef %0, ptr noundef %1, ptr noundef %2) unnamed_addr #0 {
  %4 = getelementptr inbounds nuw i8, ptr %1, i64 408
  %5 = load ptr, ptr %4, align 8
  %6 = load i32, ptr @proto_amqp, align 4
  %7 = tail call i32 @tvb_raw_offset(ptr noundef %0)
  %8 = tail call ptr @p_get_proto_data(ptr noundef %5, ptr noundef %1, i32 noundef %6, i32 noundef %7)
  %.not12 = icmp eq ptr %8, null
  br i1 %.not12, label %._crit_edge, label %.lr.ph

.lr.ph:                                           ; preds = %3, %proto_item_set_generated.exit
  %.013 = phi ptr [ %22, %proto_item_set_generated.exit ], [ %8, %3 ]
  %9 = getelementptr inbounds nuw i8, ptr %.013, i64 8
  %10 = load i32, ptr %9, align 8
  %.not11 = icmp eq i32 %10, 0
  br i1 %.not11, label %proto_item_set_generated.exit, label %11

11:                                               ; preds = %.lr.ph
  %12 = load i32, ptr @hf_amqp_message_in, align 4
  %13 = tail call ptr @proto_tree_add_uint(ptr noundef %2, i32 noundef %12, ptr noundef %0, i32 noundef 0, i32 noundef 0, i32 noundef %10)
  %.not.i = icmp eq ptr %13, null
  br i1 %.not.i, label %proto_item_set_generated.exit, label %14

14:                                               ; preds = %11
  %15 = getelementptr inbounds nuw i8, ptr %13, i64 40
  %16 = load ptr, ptr %15, align 8
  %.not5.i = icmp eq ptr %16, null
  br i1 %.not5.i, label %proto_item_set_generated.exit, label %17

17:                                               ; preds = %14
  %18 = getelementptr inbounds nuw i8, ptr %16, i64 28
  %19 = load i32, ptr %18, align 4
  %20 = or i32 %19, 2
  store i32 %20, ptr %18, align 4
  br label %proto_item_set_generated.exit

proto_item_set_generated.exit:                    ; preds = %17, %14, %11, %.lr.ph
  %21 = getelementptr inbounds nuw i8, ptr %.013, i64 16
  %22 = load ptr, ptr %21, align 8
  %.not = icmp eq ptr %22, null
  br i1 %.not, label %._crit_edge, label %.lr.ph, !llvm.loop !9

._crit_edge:                                      ; preds = %proto_item_set_generated.exit, %3
  ret void
}